target datalayout = "e-m:e-p270:32:32-p271:32:32-p272:64:64-i64:64-i128:128-f80:128-n8:16:32:64-S128"
target triple = "x86_64-pc-linux-gnu"

%"class.net::StrikeRegister" = type { i32, i32, i32, [8 x i8], i32, i32, i32, i32, ptr, %"class.std::unique_ptr" }
%"class.std::unique_ptr" = type { %"struct.std::__uniq_ptr_data" }
%"struct.std::__uniq_ptr_data" = type { %"class.std::__uniq_ptr_impl" }
%"class.std::__uniq_ptr_impl" = type { %"class.std::tuple" }
%"class.std::tuple" = type { %"struct.std::_Tuple_impl" }
%"struct.std::_Tuple_impl" = type { %"struct.std::_Head_base.1" }
%"struct.std::_Head_base.1" = type { ptr }
%"class.net::StrikeRegister::InternalNode" = type { [2 x i32] }

; Function Attrs: mustprogress nounwind uwtable
define linkonce_odr noundef nonnull align 8 dereferenceable(8) ptr @_ZNSt10_Head_baseILm0EPhLb0EE7_M_headERKS1_(ptr noundef nonnull align 8 dereferenceable(8) %0) #3 comdat align 2 {
  %2 = alloca ptr, align 8
  store ptr %0, ptr %2, align 8, !tbaa !104
  %3 = load ptr, ptr %2, align 8, !tbaa !104
  %4 = getelementptr inbounds nuw %"struct.std::_Head_base.1", ptr %3, i32 0, i32 0
  ret ptr %4
}

; Function Attrs: mustprogress nounwind uwtable
define linkonce_odr noundef nonnull align 8 dereferenceable(8) ptr @_ZNSt11_Tuple_implILm0EJPhSt14default_deleteIA_hEEE7_M_headERKS4_(ptr noundef nonnull align 8 dereferenceable(8) %0) #3 comdat align 2 {
  %2 = alloca ptr, align 8
  store ptr %0, ptr %2, align 8, !tbaa !100
  %3 = load ptr, ptr %2, align 8, !tbaa !100
  %4 = call noundef nonnull align 8 dereferenceable(8) ptr @_ZNSt10_Head_baseILm0EPhLb0EE7_M_headERKS1_(ptr noundef nonnull align 8 dereferenceable(8) %3) #17
  ret ptr %4
}

; Function Attrs: mustprogress nounwind uwtable
define linkonce_odr noundef nonnull align 8 dereferenceable(8) ptr @_ZSt12__get_helperILm0EPhJSt14default_deleteIA_hEEERKT0_RKSt11_Tuple_implIXT_EJS4_DpT1_EE(ptr noundef nonnull align 8 dereferenceable(8) %0) #3 comdat {
  %2 = alloca ptr, align 8
  store ptr %0, ptr %2, align 8, !tbaa !100
  %3 = load ptr, ptr %2, align 8, !tbaa !100
  %4 = call noundef nonnull align 8 dereferenceable(8) ptr @_ZNSt11_Tuple_implILm0EJPhSt14default_deleteIA_hEEE7_M_headERKS4_(ptr noundef nonnull align 8 dereferenceable(8) %3) #17
  ret ptr %4
}

; Function Attrs: mustprogress nounwind uwtable
define linkonce_odr noundef nonnull align 8 dereferenceable(8) ptr @_ZSt3getILm0EJPhSt14default_deleteIA_hEEERKNSt13tuple_elementIXT_ESt5tupleIJDpT0_EEE4typeERKS8_(ptr noundef nonnull align 8 dereferenceable(8) %0) #3 comdat {
  %2 = alloca ptr, align 8
  store ptr %0, ptr %2, align 8, !tbaa !98
  %3 = load ptr, ptr %2, align 8, !tbaa !98
  %4 = call noundef nonnull align 8 dereferenceable(8) ptr @_ZSt12__get_helperILm0EPhJSt14default_deleteIA_hEEERKT0_RKSt11_Tuple_implIXT_EJS4_DpT1_EE(ptr noundef nonnull align 8 dereferenceable(8) %3) #17
  ret ptr %4
}

; Function Attrs: mustprogress nounwind uwtable
define linkonce_odr noundef ptr @_ZNKSt15__uniq_ptr_implIhSt14default_deleteIA_hEE6_M_ptrEv(ptr noundef nonnull align 8 dereferenceable(8) %0) #3 comdat align 2 {
  %2 = alloca ptr, align 8
  store ptr %0, ptr %2, align 8, !tbaa !96
  %3 = load ptr, ptr %2, align 8
  %4 = getelementptr inbounds nuw %"class.std::__uniq_ptr_impl", ptr %3, i32 0, i32 0
  %5 = call noundef nonnull align 8 dereferenceable(8) ptr @_ZSt3getILm0EJPhSt14default_deleteIA_hEEERKNSt13tuple_elementIXT_ESt5tupleIJDpT0_EEE4typeERKS8_(ptr noundef nonnull align 8 dereferenceable(8) %4) #17
  %6 = load ptr, ptr %5, align 8, !tbaa !12
  ret ptr %6
}

; Function Attrs: mustprogress nounwind uwtable
define linkonce_odr noundef ptr @_ZNKSt10unique_ptrIA_hSt14default_deleteIS0_EE3getEv(ptr noundef nonnull align 8 dereferenceable(8) %0) #3 comdat align 2 {
  %2 = alloca ptr, align 8
  store ptr %0, ptr %2, align 8, !tbaa !41
  %3 = load ptr, ptr %2, align 8
  %4 = getelementptr inbounds nuw %"class.std::unique_ptr", ptr %3, i32 0, i32 0
  %5 = call noundef ptr @_ZNKSt15__uniq_ptr_implIhSt14default_deleteIA_hEE6_M_ptrEv(ptr noundef nonnull align 8 dereferenceable(8) %4) #17
  ret ptr %5
}

; Function Attrs: mustprogress nounwind uwtable
define linkonce_odr noundef nonnull align 1 dereferenceable(1) ptr @_ZNKSt10unique_ptrIA_hSt14default_deleteIS0_EEixEm(ptr noundef nonnull align 8 dereferenceable(8) %0, i64 noundef %1) #3 comdat align 2 {
  %3 = alloca ptr, align 8
  %4 = alloca i64, align 8
  store ptr %0, ptr %3, align 8, !tbaa !41
  store i64 %1, ptr %4, align 8, !tbaa !7
  %5 = load ptr, ptr %3, align 8
  br label %6

6:                                                ; preds = %2
  br label %7

7:                                                ; preds = %6
  %8 = call noundef ptr @_ZNKSt10unique_ptrIA_hSt14default_deleteIS0_EE3getEv(ptr noundef nonnull align 8 dereferenceable(8) %5) #17
  %9 = load i64, ptr %4, align 8, !tbaa !7
  %10 = getelementptr inbounds nuw i8, ptr %8, i64 %9
  ret ptr %10
}

; Function Attrs: mustprogress uwtable
define noundef nonnull align 4 dereferenceable(4) ptr @_ZN3net14StrikeRegister22external_node_next_ptrEj(ptr noundef nonnull align 8 dereferenceable(56) %0, i32 noundef %1) #0 align 2 {
  %3 = alloca ptr, align 8
  %4 = alloca i32, align 4
  store ptr %0, ptr %3, align 8, !tbaa !24
  store i32 %1, ptr %4, align 4, !tbaa !3
  %5 = load ptr, ptr %3, align 8
  %6 = getelementptr inbounds nuw %"class.net::StrikeRegister", ptr %5, i32 0, i32 9
  %7 = load i32, ptr %4, align 4, !tbaa !3
  %8 = mul i32 %7, 24
  %9 = zext i32 %8 to i64
  %10 = call noundef nonnull align 1 dereferenceable(1) ptr @_ZNKSt10unique_ptrIA_hSt14default_deleteIS0_EEixEm(ptr noundef nonnull align 8 dereferenceable(8) %6, i64 noundef %9)
  ret ptr %10
}

; Function Attrs: mustprogress nounwind uwtable
define linkonce_odr void @_ZN3net14StrikeRegister12InternalNode10SetNextPtrEj(ptr noundef nonnull align 4 dereferenceable(8) %0, i32 noundef %1) #3 comdat align 2 {
  %3 = alloca ptr, align 8
  %4 = alloca i32, align 4
  store ptr %0, ptr %3, align 8, !tbaa !51
  store i32 %1, ptr %4, align 4, !tbaa !3
  %5 = load ptr, ptr %3, align 8
  %6 = load i32, ptr %4, align 4, !tbaa !3
  %7 = getelementptr inbounds nuw %"class.net::StrikeRegister::InternalNode", ptr %5, i32 0, i32 0
  %8 = getelementptr inbounds [2 x i32], ptr %7, i64 0, i64 0
  store i32 %6, ptr %8, align 4, !tbaa !3
  ret void
}

; Function Attrs: mustprogress uwtable
define void @_ZN3net14StrikeRegister5ResetEv(ptr noundef nonnull align 8 dereferenceable(56) %0) #0 align 2 {
  %2 = alloca ptr, align 8
  %3 = alloca i32, align 4
  %4 = alloca i32, align 4
  store ptr %0, ptr %2, align 8, !tbaa !24
  %5 = load ptr, ptr %2, align 8
  %6 = getelementptr inbounds nuw %"class.net::StrikeRegister", ptr %5, i32 0, i32 5
  store i32 0, ptr %6, align 8, !tbaa !43
  call void @llvm.lifetime.start.p0(i64 4, ptr %3) #17
  store i32 0, ptr %3, align 4, !tbaa !3
  br label %7

7:                                                ; preds = %22, %1
  %8 = load i32, ptr %3, align 4, !tbaa !3
  %9 = getelementptr inbounds nuw %"class.net::StrikeRegister", ptr %5, i32 0, i32 0
  %10 = load i32, ptr %9, align 8, !tbaa !28
  %11 = sub i32 %10, 1
  %12 = icmp ult i32 %8, %11
  br i1 %12, label %14, label %13

13:                                               ; preds = %7
  call void @llvm.lifetime.end.p0(i64 4, ptr %3) #17
  br label %25

14:                                               ; preds = %7
  %15 = getelementptr inbounds nuw %"class.net::StrikeRegister", ptr %5, i32 0, i32 8
  %16 = load ptr, ptr %15, align 8, !tbaa !40
  %17 = load i32, ptr %3, align 4, !tbaa !3
  %18 = zext i32 %17 to i64
  %19 = getelementptr inbounds nuw %"class.net::StrikeRegister::InternalNode", ptr %16, i64 %18
  %20 = load i32, ptr %3, align 4, !tbaa !3
  %21 = add i32 %20, 1
  call void @_ZN3net14StrikeRegister12InternalNode10SetNextPtrEj(ptr noundef nonnull align 4 dereferenceable(8) %19, i32 noundef %21)
  br label %22

22:                                               ; preds = %14
  %23 = load i32, ptr %3, align 4, !tbaa !3
  %24 = add i32 %23, 1
  store i32 %24, ptr %3, align 4, !tbaa !3
  br label %7, !llvm.loop !44

25:                                               ; preds = %13
  %26 = getelementptr inbounds nuw %"class.net::StrikeRegister", ptr %5, i32 0, i32 8
  %27 = load ptr, ptr %26, align 8, !tbaa !40
  %28 = getelementptr inbounds nuw %"class.net::StrikeRegister", ptr %5, i32 0, i32 0
  %29 = load i32, ptr %28, align 8, !tbaa !28
  %30 = sub i32 %29, 1
  %31 = zext i32 %30 to i64
  %32 = getelementptr inbounds nuw %"class.net::StrikeRegister::InternalNode", ptr %27, i64 %31
  call void @_ZN3net14StrikeRegister12InternalNode10SetNextPtrEj(ptr noundef nonnull align 4 dereferenceable(8) %32, i32 noundef -2147483647)
  %33 = getelementptr inbounds nuw %"class.net::StrikeRegister", ptr %5, i32 0, i32 6
  store i32 0, ptr %33, align 4, !tbaa !46
  call void @llvm.lifetime.start.p0(i64 4, ptr %4) #17
  store i32 0, ptr %4, align 4, !tbaa !3
  br label %34

34:                                               ; preds = %46, %25
  %35 = load i32, ptr %4, align 4, !tbaa !3
  %36 = getelementptr inbounds nuw %"class.net::StrikeRegister", ptr %5, i32 0, i32 0
  %37 = load i32, ptr %36, align 8, !tbaa !28
  %38 = sub i32 %37, 1
  %39 = icmp ult i32 %35, %38
  br i1 %39, label %41, label %40

40:                                               ; preds = %34
  call void @llvm.lifetime.end.p0(i64 4, ptr %4) #17
  br label %49

41:                                               ; preds = %34
  %42 = load i32, ptr %4, align 4, !tbaa !3
  %43 = add i32 %42, 1
  %44 = load i32, ptr %4, align 4, !tbaa !3
  %45 = call noundef nonnull align 4 dereferenceable(4) ptr @_ZN3net14StrikeRegister22external_node_next_ptrEj(ptr noundef nonnull align 8 dereferenceable(56) %5, i32 noundef %44)
  store i32 %43, ptr %45, align 4, !tbaa !3
  br label %46

46:                                               ; preds = %41
  %47 = load i32, ptr %4, align 4, !tbaa !3
  %48 = add i32 %47, 1
  store i32 %48, ptr %4, align 4, !tbaa !3
  br label %34, !llvm.loop !47

49:                                               ; preds = %40
  %50 = getelementptr inbounds nuw %"class.net::StrikeRegister", ptr %5, i32 0, i32 0
  %51 = load i32, ptr %50, align 8, !tbaa !28
  %52 = sub i32 %51, 1
  %53 = call noundef nonnull align 4 dereferenceable(4) ptr @_ZN3net14StrikeRegister22external_node_next_ptrEj(ptr noundef nonnull align 8 dereferenceable(56) %5, i32 noundef %52)
  store i32 -2147483647, ptr %53, align 4, !tbaa !3
  %54 = getelementptr inbounds nuw %"class.net::StrikeRegister", ptr %5, i32 0, i32 7
  store i32 -2147483647, ptr %54, align 8, !tbaa !48
  ret void
}