; Function Attrs: mustprogress nofree norecurse nosync nounwind memory(write, argmem: readwrite, inaccessiblemem: none) uwtable
define void @_ZN3net14StrikeRegister5ResetEv(ptr noundef nonnull align 8 captures(none) dereferenceable(56) initializes((24, 28)) %0) local_unnamed_addr #7 align 2 {
  %2 = getelementptr inbounds nuw i8, ptr %0, i64 24
  store i32 0, ptr %2, align 8, !tbaa !24
  %3 = load i32, ptr %0, align 8, !tbaa !7
  %.not = icmp eq i32 %3, 1
  %.phi.trans.insert = getelementptr inbounds nuw i8, ptr %0, i64 40
  %.pre = load ptr, ptr %.phi.trans.insert, align 8, !tbaa !22
  br i1 %.not, label %._crit_edge, label %.lr.ph

._crit_edge.loopexit:                             ; preds = %.lr.ph
  %4 = zext i32 %11 to i64
  br label %._crit_edge

._crit_edge:                                      ; preds = %1, %._crit_edge.loopexit
  %.lcssa11 = phi i64 [ %4, %._crit_edge.loopexit ], [ 0, %1 ]
  %5 = getelementptr inbounds nuw %"class.net::StrikeRegister::InternalNode", ptr %.pre, i64 %.lcssa11
  store i32 -2147483647, ptr %5, align 4, !tbaa !3
  %6 = getelementptr inbounds nuw i8, ptr %0, i64 28
  store i32 0, ptr %6, align 4, !tbaa !25
  %7 = load i32, ptr %0, align 8, !tbaa !7
  %.not18 = icmp eq i32 %7, 1
  %.phi.trans.insert25 = getelementptr inbounds nuw i8, ptr %0, i64 48
  %.pre26 = load ptr, ptr %.phi.trans.insert25, align 8, !tbaa !23
  br i1 %.not18, label %._crit_edge16, label %.lr.ph15

.lr.ph:                                           ; preds = %1, %.lr.ph
  %indvars.iv = phi i64 [ %indvars.iv.next, %.lr.ph ], [ 0, %1 ]
  %8 = getelementptr inbounds nuw %"class.net::StrikeRegister::InternalNode", ptr %.pre, i64 %indvars.iv
  %indvars.iv.next = add nuw nsw i64 %indvars.iv, 1
  %9 = trunc nuw i64 %indvars.iv.next to i32
  store i32 %9, ptr %8, align 4, !tbaa !3
  %10 = load i32, ptr %0, align 8, !tbaa !7
  %11 = add i32 %10, -1
  %12 = zext i32 %11 to i64
  %13 = icmp samesign ult i64 %indvars.iv.next, %12
  br i1 %13, label %.lr.ph, label %._crit_edge.loopexit, !llvm.loop !26

._crit_edge16.loopexit:                           ; preds = %.lr.ph15
  %14 = mul i32 %23, 24
  %15 = zext i32 %14 to i64
  br label %._crit_edge16

._crit_edge16:                                    ; preds = %._crit_edge, %._crit_edge16.loopexit
  %.lcssa = phi i64 [ %15, %._crit_edge16.loopexit ], [ 0, %._crit_edge ]
  %16 = getelementptr inbounds nuw i8, ptr %.pre26, i64 %.lcssa
  store i32 -2147483647, ptr %16, align 4, !tbaa !3
  %17 = getelementptr inbounds nuw i8, ptr %0, i64 32
  store i32 -2147483647, ptr %17, align 8, !tbaa !29
  ret void

.lr.ph15:                                         ; preds = %._crit_edge, %.lr.ph15
  %indvars.iv22 = phi i64 [ %indvars.iv.next23, %.lr.ph15 ], [ 0, %._crit_edge ]
  %indvars.iv.next23 = add nuw nsw i64 %indvars.iv22, 1
  %18 = mul nuw nsw i64 %indvars.iv22, 24
  %19 = and i64 %18, 4294967288
  %20 = getelementptr inbounds nuw i8, ptr %.pre26, i64 %19
  %21 = trunc nuw i64 %indvars.iv.next23 to i32
  store i32 %21, ptr %20, align 4, !tbaa !3
  %22 = load i32, ptr %0, align 8, !tbaa !7
  %23 = add i32 %22, -1
  %24 = zext i32 %23 to i64
  %25 = icmp samesign ult i64 %indvars.iv.next23, %24
  br i1 %25, label %.lr.ph15, label %._crit_edge16.loopexit, !llvm.loop !28
}